target datalayout = "e-m:e-p270:32:32-p271:32:32-p272:64:64-i64:64-i128:128-f80:128-n8:16:32:64-S128"
target triple = "x86_64-unknown-linux-gnu"

%"struct.llvh::fltSemantics" = type { i16, i16, i32, i32 }
%"class.llvh::APInt" = type <{ %union.anon, i32, [4 x i8] }>
%union.anon = type { i64 }
%"class.llvh::APFloat" = type { [8 x i8], %"union.llvh::APFloat::Storage" }
%"union.llvh::APFloat::Storage" = type { %"class.llvh::detail::DoubleAPFloat", [8 x i8] }
%"class.llvh::detail::DoubleAPFloat" = type { ptr, %"class.std::unique_ptr" }
%"class.std::unique_ptr" = type { %"struct.std::__uniq_ptr_data" }
%"struct.std::__uniq_ptr_data" = type { %"class.std::__uniq_ptr_impl" }
%"class.std::__uniq_ptr_impl" = type { %"class.std::tuple" }
%"class.std::tuple" = type { %"struct.std::_Tuple_impl" }
%"struct.std::_Tuple_impl" = type { %"struct.std::_Head_base.3" }
%"struct.std::_Head_base.3" = type { ptr }

@_ZN4llvhL18semPPCDoubleDoubleE = internal constant %"struct.llvh::fltSemantics" { i16 -1, i16 0, i32 0, i32 0 }, align 4
@_ZN4llvhL24semPPCDoubleDoubleLegacyE = internal constant %"struct.llvh::fltSemantics" { i16 1023, i16 -969, i32 106, i32 128 }, align 4
@_ZN4llvh6detail9IEEEFloatC1ERKNS_12fltSemanticsE = hidden unnamed_addr alias void (ptr, ptr), ptr @_ZN4llvh6detail9IEEEFloatC2ERKNS_12fltSemanticsE
@_ZN4llvh6detail9IEEEFloatD1Ev = hidden unnamed_addr alias void (ptr), ptr @_ZN4llvh6detail9IEEEFloatD2Ev
@_ZN4llvh6detail13DoubleAPFloatC1ERKNS_12fltSemanticsE = hidden unnamed_addr alias void (ptr, ptr), ptr @_ZN4llvh6detail13DoubleAPFloatC2ERKNS_12fltSemanticsE
@_ZN4llvh6detail13DoubleAPFloatC1ERKNS_12fltSemanticsERKNS_5APIntE = hidden unnamed_addr alias void (ptr, ptr, ptr), ptr @_ZN4llvh6detail13DoubleAPFloatC2ERKNS_12fltSemanticsERKNS_5APIntE
@_ZN4llvh6detail13DoubleAPFloatC1EOS1_ = hidden unnamed_addr alias void (ptr, ptr), ptr @_ZN4llvh6detail13DoubleAPFloatC2EOS1_

; Function Attrs: mustprogress nounwind uwtable
define linkonce_odr hidden noundef zeroext i1 @_ZNK4llvh5APInt12isSingleWordEv(ptr noundef nonnull align 8 dereferenceable(12) %this) #1 comdat align 2 {
entry:
  %this.addr = alloca ptr, align 8
  store ptr %this, ptr %this.addr, align 8
  %this1 = load ptr, ptr %this.addr, align 8
  %BitWidth = getelementptr inbounds %"class.llvh::APInt", ptr %this1, i32 0, i32 1
  %0 = load i32, ptr %BitWidth, align 8
  %cmp = icmp ule i32 %0, 64
  ret i1 %cmp
}

; Function Attrs: mustprogress nounwind willreturn memory(none) uwtable
define hidden noundef nonnull align 4 dereferenceable(12) ptr @_ZN4llvh11APFloatBase15PPCDoubleDoubleEv() #0 align 2 {
entry:
  ret ptr @_ZN4llvhL18semPPCDoubleDoubleE
}

; Function Attrs: mustprogress nounwind uwtable
define linkonce_odr hidden void @_ZN4llvh7APFloat7StorageD2Ev(ptr noundef nonnull align 8 dereferenceable(24) %this) unnamed_addr #1 comdat align 2 {
entry:
  %this.addr = alloca ptr, align 8
  store ptr %this, ptr %this.addr, align 8
  %this1 = load ptr, ptr %this.addr, align 8
  %0 = load ptr, ptr %this1, align 8
  %call = call noundef zeroext i1 @_ZN4llvh7APFloat10usesLayoutINS_6detail9IEEEFloatEEEbRKNS_12fltSemanticsE(ptr noundef nonnull align 4 dereferenceable(12) %0)
  br i1 %call, label %if.then, label %if.end

if.then:                                          ; preds = %entry
  call void @_ZN4llvh6detail9IEEEFloatD1Ev(ptr noundef nonnull align 8 dereferenceable(24) %this1) #10
  br label %return

if.end:                                           ; preds = %entry
  %1 = load ptr, ptr %this1, align 8
  %call2 = call noundef zeroext i1 @_ZN4llvh7APFloat10usesLayoutINS_6detail13DoubleAPFloatEEEbRKNS_12fltSemanticsE(ptr noundef nonnull align 4 dereferenceable(12) %1)
  br i1 %call2, label %if.then3, label %if.end4

if.then3:                                         ; preds = %if.end
  call void @_ZN4llvh6detail13DoubleAPFloatD2Ev(ptr noundef nonnull align 8 dereferenceable(16) %this1) #10
  br label %return

if.end4:                                          ; preds = %if.end
  unreachable

return:                                           ; preds = %if.then3, %if.then
  ret void
}

; Function Attrs: mustprogress nounwind uwtable
define linkonce_odr hidden noundef zeroext i1 @_ZNK4llvh5APInt12needsCleanupEv(ptr noundef nonnull align 8 dereferenceable(12) %this) #1 comdat align 2 {
entry:
  %this.addr = alloca ptr, align 8
  store ptr %this, ptr %this.addr, align 8
  %this1 = load ptr, ptr %this.addr, align 8
  %call = call noundef zeroext i1 @_ZNK4llvh5APInt12isSingleWordEv(ptr noundef nonnull align 8 dereferenceable(12) %this1)
  %lnot = xor i1 %call, true
  ret i1 %lnot
}

; Function Attrs: mustprogress nounwind uwtable
define linkonce_odr hidden noundef zeroext i1 @_ZN4llvh7APFloat10usesLayoutINS_6detail13DoubleAPFloatEEEbRKNS_12fltSemanticsE(ptr noundef nonnull align 4 dereferenceable(12) %Semantics) #1 comdat align 2 {
entry:
  %Semantics.addr = alloca ptr, align 8
  store ptr %Semantics, ptr %Semantics.addr, align 8
  %0 = load ptr, ptr %Semantics.addr, align 8
  %call = call noundef nonnull align 4 dereferenceable(12) ptr @_ZN4llvh11APFloatBase15PPCDoubleDoubleEv() #16
  %cmp = icmp eq ptr %0, %call
  ret i1 %cmp
}

; Function Attrs: mustprogress nounwind uwtable
define linkonce_odr hidden noundef zeroext i1 @_ZN4llvh7APFloat10usesLayoutINS_6detail9IEEEFloatEEEbRKNS_12fltSemanticsE(ptr noundef nonnull align 4 dereferenceable(12) %Semantics) #1 comdat align 2 {
entry:
  %Semantics.addr = alloca ptr, align 8
  store ptr %Semantics, ptr %Semantics.addr, align 8
  %0 = load ptr, ptr %Semantics.addr, align 8
  %call = call noundef nonnull align 4 dereferenceable(12) ptr @_ZN4llvh11APFloatBase15PPCDoubleDoubleEv() #16
  %cmp = icmp ne ptr %0, %call
  ret i1 %cmp
}

; Function Attrs: mustprogress nounwind uwtable
define linkonce_odr hidden noundef nonnull align 4 dereferenceable(12) ptr @_ZNK4llvh7APFloat12getSemanticsEv(ptr noundef nonnull align 8 dereferenceable(32) %this) #1 comdat align 2 {
entry:
  %this.addr = alloca ptr, align 8
  store ptr %this, ptr %this.addr, align 8
  %this1 = load ptr, ptr %this.addr, align 8
  %U = getelementptr inbounds %"class.llvh::APFloat", ptr %this1, i32 0, i32 1
  %0 = load ptr, ptr %U, align 8
  ret ptr %0
}

; Function Attrs: mustprogress nounwind uwtable
define linkonce_odr hidden void @_ZN4llvh7APFloat7StorageC2IJEEERKNS_12fltSemanticsEDpOT_(ptr noundef nonnull align 8 dereferenceable(24) %this, ptr noundef nonnull align 4 dereferenceable(12) %Semantics) unnamed_addr #1 comdat align 2 {
entry:
  %this.addr = alloca ptr, align 8
  %Semantics.addr = alloca ptr, align 8
  store ptr %this, ptr %this.addr, align 8
  store ptr %Semantics, ptr %Semantics.addr, align 8
  %this1 = load ptr, ptr %this.addr, align 8
  %0 = load ptr, ptr %Semantics.addr, align 8
  %call = call noundef zeroext i1 @_ZN4llvh7APFloat10usesLayoutINS_6detail9IEEEFloatEEEbRKNS_12fltSemanticsE(ptr noundef nonnull align 4 dereferenceable(12) %0)
  br i1 %call, label %if.then, label %if.end

if.then:                                          ; preds = %entry
  %1 = load ptr, ptr %Semantics.addr, align 8
  call void @_ZN4llvh6detail9IEEEFloatC1ERKNS_12fltSemanticsE(ptr noundef nonnull align 8 dereferenceable(24) %this1, ptr noundef nonnull align 4 dereferenceable(12) %1)
  br label %return

if.end:                                           ; preds = %entry
  %2 = load ptr, ptr %Semantics.addr, align 8
  %call2 = call noundef zeroext i1 @_ZN4llvh7APFloat10usesLayoutINS_6detail13DoubleAPFloatEEEbRKNS_12fltSemanticsE(ptr noundef nonnull align 4 dereferenceable(12) %2)
  br i1 %call2, label %if.then3, label %if.end4

if.then3:                                         ; preds = %if.end
  %3 = load ptr, ptr %Semantics.addr, align 8
  call void @_ZN4llvh6detail13DoubleAPFloatC1ERKNS_12fltSemanticsE(ptr noundef nonnull align 8 dereferenceable(16) %this1, ptr noundef nonnull align 4 dereferenceable(12) %3)
  br label %return

if.end4:                                          ; preds = %if.end
  unreachable

return:                                           ; preds = %if.then3, %if.then
  ret void
}

; Function Attrs: mustprogress nounwind uwtable
define linkonce_odr hidden void @_ZN4llvh7APFloatD2Ev(ptr noundef nonnull align 8 dereferenceable(32) %this) unnamed_addr #1 comdat align 2 {
entry:
  %this.addr = alloca ptr, align 8
  store ptr %this, ptr %this.addr, align 8
  %this1 = load ptr, ptr %this.addr, align 8
  %U = getelementptr inbounds %"class.llvh::APFloat", ptr %this1, i32 0, i32 1
  call void @_ZN4llvh7APFloat7StorageD2Ev(ptr noundef nonnull align 8 dereferenceable(24) %U) #10
  ret void
}

; Function Attrs: mustprogress nounwind uwtable
define linkonce_odr hidden void @_ZN4llvh5APIntD2Ev(ptr noundef nonnull align 8 dereferenceable(12) %this) unnamed_addr #1 comdat align 2 {
entry:
  %this.addr = alloca ptr, align 8
  store ptr %this, ptr %this.addr, align 8
  %this1 = load ptr, ptr %this.addr, align 8
  %call = call noundef zeroext i1 @_ZNK4llvh5APInt12needsCleanupEv(ptr noundef nonnull align 8 dereferenceable(12) %this1)
  br i1 %call, label %if.then, label %if.end

if.then:                                          ; preds = %entry
  %U = getelementptr inbounds %"class.llvh::APInt", ptr %this1, i32 0, i32 0
  %0 = load ptr, ptr %U, align 8
  %isnull = icmp eq ptr %0, null
  br i1 %isnull, label %delete.end, label %delete.notnull

delete.notnull:                                   ; preds = %if.then
  call void @_ZdaPv(ptr noundef %0) #14
  br label %delete.end

delete.end:                                       ; preds = %delete.notnull, %if.then
  br label %if.end

if.end:                                           ; preds = %delete.end, %entry
  ret void
}

; Function Attrs: mustprogress nounwind uwtable
define linkonce_odr hidden noundef nonnull align 8 dereferenceable(16) ptr @_ZN4llvh6detail13DoubleAPFloataSEOS1_(ptr noundef nonnull align 8 dereferenceable(16) %this, ptr noundef nonnull align 8 dereferenceable(16) %RHS) #1 comdat align 2 {
entry:
  %this.addr = alloca ptr, align 8
  %RHS.addr = alloca ptr, align 8
  store ptr %this, ptr %this.addr, align 8
  store ptr %RHS, ptr %RHS.addr, align 8
  %this1 = load ptr, ptr %this.addr, align 8
  %0 = load ptr, ptr %RHS.addr, align 8
  %cmp = icmp ne ptr %this1, %0
  br i1 %cmp, label %if.then, label %if.end

if.then:                                          ; preds = %entry
  call void @_ZN4llvh6detail13DoubleAPFloatD2Ev(ptr noundef nonnull align 8 dereferenceable(16) %this1) #10
  %1 = load ptr, ptr %RHS.addr, align 8
  call void @_ZN4llvh6detail13DoubleAPFloatC1EOS1_(ptr noundef nonnull align 8 dereferenceable(16) %this1, ptr noundef nonnull align 8 dereferenceable(16) %1)
  br label %if.end

if.end:                                           ; preds = %if.then, %entry
  ret ptr %this1
}

; Function Attrs: mustprogress nounwind uwtable
define linkonce_odr hidden void @_ZNK4llvh7APFloat14bitcastToAPIntEv(ptr noalias sret(%"class.llvh::APInt") align 8 %agg.result, ptr noundef nonnull align 8 dereferenceable(32) %this) #1 comdat align 2 {
entry:
  %result.ptr = alloca ptr, align 8
  %this.addr = alloca ptr, align 8
  store ptr %agg.result, ptr %result.ptr, align 8
  store ptr %this, ptr %this.addr, align 8
  %this1 = load ptr, ptr %this.addr, align 8
  br label %do.body

do.body:                                          ; preds = %entry
  %call = call noundef nonnull align 4 dereferenceable(12) ptr @_ZNK4llvh7APFloat12getSemanticsEv(ptr noundef nonnull align 8 dereferenceable(32) %this1)
  %call2 = call noundef zeroext i1 @_ZN4llvh7APFloat10usesLayoutINS_6detail9IEEEFloatEEEbRKNS_12fltSemanticsE(ptr noundef nonnull align 4 dereferenceable(12) %call)
  br i1 %call2, label %if.then, label %if.end

if.then:                                          ; preds = %do.body
  %U = getelementptr inbounds %"class.llvh::APFloat", ptr %this1, i32 0, i32 1
  call void @_ZNK4llvh6detail9IEEEFloat14bitcastToAPIntEv(ptr sret(%"class.llvh::APInt") align 8 %agg.result, ptr noundef nonnull align 8 dereferenceable(24) %U)
  br label %return

if.end:                                           ; preds = %do.body
  %call3 = call noundef nonnull align 4 dereferenceable(12) ptr @_ZNK4llvh7APFloat12getSemanticsEv(ptr noundef nonnull align 8 dereferenceable(32) %this1)
  %call4 = call noundef zeroext i1 @_ZN4llvh7APFloat10usesLayoutINS_6detail13DoubleAPFloatEEEbRKNS_12fltSemanticsE(ptr noundef nonnull align 4 dereferenceable(12) %call3)
  br i1 %call4, label %if.then5, label %if.end7

if.then5:                                         ; preds = %if.end
  %U6 = getelementptr inbounds %"class.llvh::APFloat", ptr %this1, i32 0, i32 1
  call void @_ZNK4llvh6detail13DoubleAPFloat14bitcastToAPIntEv(ptr sret(%"class.llvh::APInt") align 8 %agg.result, ptr noundef nonnull align 8 dereferenceable(16) %U6)
  br label %return

if.end7:                                          ; preds = %if.end
  unreachable

do.end:                                           ; No predecessors!
  call void @llvm.trap()
  unreachable

return:                                           ; preds = %if.then5, %if.then
  ret void
}

; Function Attrs: mustprogress nounwind uwtable
define linkonce_odr hidden noundef i32 @_ZN4llvh7APFloat16convertFromAPIntERKNS_5APIntEbNS_11APFloatBase12roundingModeE(ptr noundef nonnull align 8 dereferenceable(32) %this, ptr noundef nonnull align 8 dereferenceable(12) %Input, i1 noundef zeroext %IsSigned, i32 noundef %RM) #1 comdat align 2 {
entry:
  %retval = alloca i32, align 4
  %this.addr = alloca ptr, align 8
  %Input.addr = alloca ptr, align 8
  %IsSigned.addr = alloca i8, align 1
  %RM.addr = alloca i32, align 4
  store ptr %this, ptr %this.addr, align 8
  store ptr %Input, ptr %Input.addr, align 8
  %frombool = zext i1 %IsSigned to i8
  store i8 %frombool, ptr %IsSigned.addr, align 1
  store i32 %RM, ptr %RM.addr, align 4
  %this1 = load ptr, ptr %this.addr, align 8
  br label %do.body

do.body:                                          ; preds = %entry
  %call = call noundef nonnull align 4 dereferenceable(12) ptr @_ZNK4llvh7APFloat12getSemanticsEv(ptr noundef nonnull align 8 dereferenceable(32) %this1)
  %call2 = call noundef zeroext i1 @_ZN4llvh7APFloat10usesLayoutINS_6detail9IEEEFloatEEEbRKNS_12fltSemanticsE(ptr noundef nonnull align 4 dereferenceable(12) %call)
  br i1 %call2, label %if.then, label %if.end

if.then:                                          ; preds = %do.body
  %U = getelementptr inbounds %"class.llvh::APFloat", ptr %this1, i32 0, i32 1
  %0 = load ptr, ptr %Input.addr, align 8
  %1 = load i8, ptr %IsSigned.addr, align 1
  %tobool = trunc i8 %1 to i1
  %2 = load i32, ptr %RM.addr, align 4
  %call3 = call noundef i32 @_ZN4llvh6detail9IEEEFloat16convertFromAPIntERKNS_5APIntEbNS_11APFloatBase12roundingModeE(ptr noundef nonnull align 8 dereferenceable(24) %U, ptr noundef nonnull align 8 dereferenceable(12) %0, i1 noundef zeroext %tobool, i32 noundef %2)
  store i32 %call3, ptr %retval, align 4
  br label %return

if.end:                                           ; preds = %do.body
  %call4 = call noundef nonnull align 4 dereferenceable(12) ptr @_ZNK4llvh7APFloat12getSemanticsEv(ptr noundef nonnull align 8 dereferenceable(32) %this1)
  %call5 = call noundef zeroext i1 @_ZN4llvh7APFloat10usesLayoutINS_6detail13DoubleAPFloatEEEbRKNS_12fltSemanticsE(ptr noundef nonnull align 4 dereferenceable(12) %call4)
  br i1 %call5, label %if.then6, label %if.end10

if.then6:                                         ; preds = %if.end
  %U7 = getelementptr inbounds %"class.llvh::APFloat", ptr %this1, i32 0, i32 1
  %3 = load ptr, ptr %Input.addr, align 8
  %4 = load i8, ptr %IsSigned.addr, align 1
  %tobool8 = trunc i8 %4 to i1
  %5 = load i32, ptr %RM.addr, align 4
  %call9 = call noundef i32 @_ZN4llvh6detail13DoubleAPFloat16convertFromAPIntERKNS_5APIntEbNS_11APFloatBase12roundingModeE(ptr noundef nonnull align 8 dereferenceable(16) %U7, ptr noundef nonnull align 8 dereferenceable(12) %3, i1 noundef zeroext %tobool8, i32 noundef %5)
  store i32 %call9, ptr %retval, align 4
  br label %return

if.end10:                                         ; preds = %if.end
  unreachable

do.end:                                           ; No predecessors!
  call void @llvm.trap()
  unreachable

return:                                           ; preds = %if.then6, %if.then
  %6 = load i32, ptr %retval, align 4
  ret i32 %6
}

; Function Attrs: mustprogress nounwind uwtable
define linkonce_odr hidden void @_ZN4llvh7APFloatC2ERKNS_12fltSemanticsE(ptr noundef nonnull align 8 dereferenceable(32) %this, ptr noundef nonnull align 4 dereferenceable(12) %Semantics) unnamed_addr #1 comdat align 2 {
entry:
  %this.addr = alloca ptr, align 8
  %Semantics.addr = alloca ptr, align 8
  store ptr %this, ptr %this.addr, align 8
  store ptr %Semantics, ptr %Semantics.addr, align 8
  %this1 = load ptr, ptr %this.addr, align 8
  %U = getelementptr inbounds %"class.llvh::APFloat", ptr %this1, i32 0, i32 1
  %0 = load ptr, ptr %Semantics.addr, align 8
  call void @_ZN4llvh7APFloat7StorageC2IJEEERKNS_12fltSemanticsEDpOT_(ptr noundef nonnull align 8 dereferenceable(24) %U, ptr noundef nonnull align 4 dereferenceable(12) %0)
  ret void
}

; Function Attrs: mustprogress nounwind uwtable
define hidden noundef i32 @_ZN4llvh6detail13DoubleAPFloat16convertFromAPIntERKNS_5APIntEbNS_11APFloatBase12roundingModeE(ptr noundef nonnull align 8 dereferenceable(16) %this, ptr noundef nonnull align 8 dereferenceable(12) %Input, i1 noundef zeroext %IsSigned, i32 noundef %RM) #1 align 2 {
entry:
  %this.addr = alloca ptr, align 8
  %Input.addr = alloca ptr, align 8
  %IsSigned.addr = alloca i8, align 1
  %RM.addr = alloca i32, align 4
  %Tmp = alloca %"class.llvh::APFloat", align 8
  %Ret = alloca i32, align 4
  %ref.tmp = alloca %"class.llvh::detail::DoubleAPFloat", align 8
  %ref.tmp2 = alloca %"class.llvh::APInt", align 8
  store ptr %this, ptr %this.addr, align 8
  store ptr %Input, ptr %Input.addr, align 8
  %frombool = zext i1 %IsSigned to i8
  store i8 %frombool, ptr %IsSigned.addr, align 1
  store i32 %RM, ptr %RM.addr, align 4
  %this1 = load ptr, ptr %this.addr, align 8
  call void @_ZN4llvh7APFloatC2ERKNS_12fltSemanticsE(ptr noundef nonnull align 8 dereferenceable(32) %Tmp, ptr noundef nonnull align 4 dereferenceable(12) @_ZN4llvhL24semPPCDoubleDoubleLegacyE)
  %0 = load ptr, ptr %Input.addr, align 8
  %1 = load i8, ptr %IsSigned.addr, align 1
  %tobool = trunc i8 %1 to i1
  %2 = load i32, ptr %RM.addr, align 4
  %call = call noundef i32 @_ZN4llvh7APFloat16convertFromAPIntERKNS_5APIntEbNS_11APFloatBase12roundingModeE(ptr noundef nonnull align 8 dereferenceable(32) %Tmp, ptr noundef nonnull align 8 dereferenceable(12) %0, i1 noundef zeroext %tobool, i32 noundef %2)
  store i32 %call, ptr %Ret, align 4
  call void @_ZNK4llvh7APFloat14bitcastToAPIntEv(ptr sret(%"class.llvh::APInt") align 8 %ref.tmp2, ptr noundef nonnull align 8 dereferenceable(32) %Tmp)
  call void @_ZN4llvh6detail13DoubleAPFloatC1ERKNS_12fltSemanticsERKNS_5APIntE(ptr noundef nonnull align 8 dereferenceable(16) %ref.tmp, ptr noundef nonnull align 4 dereferenceable(12) @_ZN4llvhL18semPPCDoubleDoubleE, ptr noundef nonnull align 8 dereferenceable(12) %ref.tmp2)
  %call3 = call noundef nonnull align 8 dereferenceable(16) ptr @_ZN4llvh6detail13DoubleAPFloataSEOS1_(ptr noundef nonnull align 8 dereferenceable(16) %this1, ptr noundef nonnull align 8 dereferenceable(16) %ref.tmp)
  call void @_ZN4llvh6detail13DoubleAPFloatD2Ev(ptr noundef nonnull align 8 dereferenceable(16) %ref.tmp) #10
  call void @_ZN4llvh5APIntD2Ev(ptr noundef nonnull align 8 dereferenceable(12) %ref.tmp2) #10
  %3 = load i32, ptr %Ret, align 4
  call void @_ZN4llvh7APFloatD2Ev(ptr noundef nonnull align 8 dereferenceable(32) %Tmp) #10
  ret i32 %3
}