; Function Attrs: mustprogress nounwind uwtable
define hidden noundef range(i32 0, 25) i32 @_ZN4llvh6detail13DoubleAPFloat16convertFromAPIntERKNS_5APIntEbNS_11APFloatBase12roundingModeE(ptr noundef nonnull align 8 dereferenceable(16) %this, ptr noundef nonnull align 8 dereferenceable(12) %Input, i1 noundef zeroext %IsSigned, i32 noundef %RM) local_unnamed_addr #2 align 2 {
_ZN4llvh7APFloat16convertFromAPIntERKNS_5APIntEbNS_11APFloatBase12roundingModeE.exit:
  %Tmp = alloca %"class.llvh::APFloat", align 8
  %ref.tmp = alloca %"class.llvh::detail::DoubleAPFloat", align 8
  %ref.tmp2 = alloca %"class.llvh::APInt", align 8
  %U.i = getelementptr inbounds nuw i8, ptr %Tmp, i64 8
  store ptr @_ZN4llvhL24semPPCDoubleDoubleLegacyE, ptr %U.i, align 8
  %call2.i.i.i = tail call noalias noundef nonnull dereferenceable(16) ptr @_Znam(i64 noundef 16) #24
  %significand.i.i.i = getelementptr inbounds nuw i8, ptr %Tmp, i64 16
  store ptr %call2.i.i.i, ptr %significand.i.i.i, align 8
  %category.i.i = getelementptr inbounds nuw i8, ptr %Tmp, i64 26
  store i8 3, ptr %category.i.i, align 2
  %call3.i = call noundef i32 @_ZN4llvh6detail9IEEEFloat16convertFromAPIntERKNS_5APIntEbNS_11APFloatBase12roundingModeE(ptr noundef nonnull align 8 dereferenceable(24) %U.i, ptr noundef nonnull align 8 dereferenceable(12) %Input, i1 noundef zeroext %IsSigned, i32 noundef %RM)
  %0 = load ptr, ptr %U.i, align 8, !noalias !106
  %cmp.i.not.i = icmp eq ptr %0, @_ZN4llvhL18semPPCDoubleDoubleE
  br i1 %cmp.i.not.i, label %if.end.i3, label %if.then.i2

if.then.i2:                                       ; preds = %_ZN4llvh7APFloat16convertFromAPIntERKNS_5APIntEbNS_11APFloatBase12roundingModeE.exit
  call void @_ZNK4llvh6detail9IEEEFloat14bitcastToAPIntEv(ptr nonnull sret(%"class.llvh::APInt") align 8 %ref.tmp2, ptr noundef nonnull align 8 dereferenceable(24) %U.i)
  br label %_ZNK4llvh7APFloat14bitcastToAPIntEv.exit

if.end.i3:                                        ; preds = %_ZN4llvh7APFloat16convertFromAPIntERKNS_5APIntEbNS_11APFloatBase12roundingModeE.exit
  call void @_ZNK4llvh6detail13DoubleAPFloat14bitcastToAPIntEv(ptr nonnull sret(%"class.llvh::APInt") align 8 %ref.tmp2, ptr noundef nonnull align 8 dereferenceable(16) %U.i)
  br label %_ZNK4llvh7APFloat14bitcastToAPIntEv.exit

_ZNK4llvh7APFloat14bitcastToAPIntEv.exit:         ; preds = %if.then.i2, %if.end.i3
  call void @_ZN4llvh6detail13DoubleAPFloatC2ERKNS_12fltSemanticsERKNS_5APIntE(ptr noundef nonnull align 8 dereferenceable(16) %ref.tmp, ptr noundef nonnull align 4 dereferenceable(12) @_ZN4llvhL18semPPCDoubleDoubleE, ptr noundef nonnull align 8 dereferenceable(12) %ref.tmp2)
  %cmp.not.i = icmp eq ptr %this, %ref.tmp
  br i1 %cmp.not.i, label %_ZN4llvh6detail13DoubleAPFloataSEOS1_.exit, label %if.then.i4

if.then.i4:                                       ; preds = %_ZNK4llvh7APFloat14bitcastToAPIntEv.exit
  call void @_ZN4llvh6detail13DoubleAPFloatD2Ev(ptr noundef nonnull align 8 dereferenceable(16) %this) #26
  %1 = load ptr, ptr %ref.tmp, align 8
  store ptr %1, ptr %this, align 8
  %Floats.i.i = getelementptr inbounds nuw i8, ptr %this, i64 8
  %Floats3.i.i = getelementptr inbounds nuw i8, ptr %ref.tmp, i64 8
  %2 = load i64, ptr %Floats3.i.i, align 8
  store i64 %2, ptr %Floats.i.i, align 8
  store ptr null, ptr %Floats3.i.i, align 8
  store ptr @_ZN4llvhL8semBogusE, ptr %ref.tmp, align 8
  br label %_ZN4llvh6detail13DoubleAPFloataSEOS1_.exit

_ZN4llvh6detail13DoubleAPFloataSEOS1_.exit:       ; preds = %_ZNK4llvh7APFloat14bitcastToAPIntEv.exit, %if.then.i4
  call void @_ZN4llvh6detail13DoubleAPFloatD2Ev(ptr noundef nonnull align 8 dereferenceable(16) %ref.tmp) #26
  %BitWidth.i.i.i = getelementptr inbounds nuw i8, ptr %ref.tmp2, i64 8
  %3 = load i32, ptr %BitWidth.i.i.i, align 8
  %cmp.i.i.i = icmp ugt i32 %3, 64
  br i1 %cmp.i.i.i, label %if.then.i7, label %_ZN4llvh5APIntD2Ev.exit

if.then.i7:                                       ; preds = %_ZN4llvh6detail13DoubleAPFloataSEOS1_.exit
  %4 = load ptr, ptr %ref.tmp2, align 8
  %isnull.i = icmp eq ptr %4, null
  br i1 %isnull.i, label %_ZN4llvh5APIntD2Ev.exit, label %delete.notnull.i

delete.notnull.i:                                 ; preds = %if.then.i7
  call void @_ZdaPv(ptr noundef nonnull %4) #25
  br label %_ZN4llvh5APIntD2Ev.exit

_ZN4llvh5APIntD2Ev.exit:                          ; preds = %_ZN4llvh6detail13DoubleAPFloataSEOS1_.exit, %if.then.i7, %delete.notnull.i
  %5 = load ptr, ptr %U.i, align 8
  %cmp.i.not.i9 = icmp eq ptr %5, @_ZN4llvhL18semPPCDoubleDoubleE
  br i1 %cmp.i.not.i9, label %if.end.i.i, label %if.then.i.i

if.then.i.i:                                      ; preds = %_ZN4llvh5APIntD2Ev.exit
  %precision.i.i.i.i.i = getelementptr inbounds nuw i8, ptr %5, i64 4
  %6 = load i32, ptr %precision.i.i.i.i.i, align 4
  %7 = add i32 %6, -64
  %cmp.i.i.i.i = icmp ult i32 %7, -128
  br i1 %cmp.i.i.i.i, label %if.then.i.i.i, label %_ZN4llvh7APFloatD2Ev.exit

if.then.i.i.i:                                    ; preds = %if.then.i.i
  %8 = load ptr, ptr %significand.i.i.i, align 8
  %isnull.i.i.i = icmp eq ptr %8, null
  br i1 %isnull.i.i.i, label %_ZN4llvh7APFloatD2Ev.exit, label %delete.notnull.i.i.i

delete.notnull.i.i.i:                             ; preds = %if.then.i.i.i
  call void @_ZdaPv(ptr noundef nonnull %8) #25
  br label %_ZN4llvh7APFloatD2Ev.exit

if.end.i.i:                                       ; preds = %_ZN4llvh5APIntD2Ev.exit
  call void @_ZN4llvh6detail13DoubleAPFloatD2Ev(ptr noundef nonnull align 8 dereferenceable(24) %U.i) #26
  br label %_ZN4llvh7APFloatD2Ev.exit

_ZN4llvh7APFloatD2Ev.exit:                        ; preds = %if.then.i.i, %if.then.i.i.i, %delete.notnull.i.i.i, %if.end.i.i
  ret i32 %call3.i
}